
boot_rom.elf:     file format elf32-littleriscv


Disassembly of section .text:

00000000 <entry>:
   0:	f1402573          	csrr	a0,mhartid
   4:	4589                	li	a1,2
   6:	00b50e63          	beq	a0,a1,22 <shadow_loop>
   a:	f00115b7          	lui	a1,0xf0011
   e:	0005c503          	lbu	a0,0(a1) # f0011000 <_end+0xf0010f0c>
  12:	d57d                	beqz	a0,0 <entry>
  14:	41c8                	lw	a0,4(a1)
  16:	9502                	jalr	a0
  18:	0001                	nop
  1a:	0001                	nop
  1c:	0001                	nop
  1e:	0001                	nop
  20:	0001                	nop

00000022 <shadow_loop>:
  22:	0000006f          	j	22 <shadow_loop>
  26:	0001                	nop
  28:	0001                	nop
  2a:	0001                	nop

0000002c <halt_boot>:
  2c:	f0108f37          	lui	t5,0xf0108
  30:	000f2f83          	lw	t6,0(t5) # f0108000 <_end+0xf0107f0c>
  34:	300f9073          	csrw	mstatus,t6
  38:	004f2f83          	lw	t6,4(t5)
  3c:	304f9073          	csrw	mie,t6
  40:	008f2f83          	lw	t6,8(t5)
  44:	305f9073          	csrw	mtvec,t6
  48:	00cf2f83          	lw	t6,12(t5)
  4c:	341f9073          	csrw	mepc,t6
  50:	010f2f83          	lw	t6,16(t5)
  54:	343f9073          	csrw	mtval,t6
  58:	f0108fb7          	lui	t6,0xf0108
  5c:	100f8f93          	addi	t6,t6,256 # f0108100 <_end+0xf010800c>
  60:	000fa083          	lw	ra,0(t6)
  64:	004fa103          	lw	sp,4(t6)
  68:	008fa183          	lw	gp,8(t6)
  6c:	00cfa203          	lw	tp,12(t6)
  70:	010fa283          	lw	t0,16(t6)
  74:	014fa303          	lw	t1,20(t6)
  78:	018fa383          	lw	t2,24(t6)
  7c:	01cfa403          	lw	s0,28(t6)
  80:	020fa483          	lw	s1,32(t6)
  84:	024fa503          	lw	a0,36(t6)
  88:	028fa583          	lw	a1,40(t6)
  8c:	02cfa603          	lw	a2,44(t6)
  90:	030fa683          	lw	a3,48(t6)
  94:	034fa703          	lw	a4,52(t6)
  98:	038fa783          	lw	a5,56(t6)
  9c:	03cfa803          	lw	a6,60(t6)
  a0:	040fa883          	lw	a7,64(t6)
  a4:	044fa903          	lw	s2,68(t6)
  a8:	048fa983          	lw	s3,72(t6)
  ac:	04cfaa03          	lw	s4,76(t6)
  b0:	050faa83          	lw	s5,80(t6)
  b4:	054fab03          	lw	s6,84(t6)
  b8:	058fab83          	lw	s7,88(t6)
  bc:	05cfac03          	lw	s8,92(t6)
  c0:	060fac83          	lw	s9,96(t6)
  c4:	064fad03          	lw	s10,100(t6)
  c8:	068fad83          	lw	s11,104(t6)
  cc:	06cfae03          	lw	t3,108(t6)
  d0:	070fae83          	lw	t4,112(t6)
  d4:	074faf03          	lw	t5,116(t6)
  d8:	078faf83          	lw	t6,120(t6)
  dc:	07cfaf03          	lw	t5,124(t6)
  e0:	7b1f1073          	csrw	dpc,t5
  e4:	7b200073          	dret
  e8:	0001                	nop
  ea:	0001                	nop
  ec:	f41ff06f          	j	2c <halt_boot>
  f0:	0001                	nop
  f2:	0001                	nop
